target datalayout = "e-m:e-p270:32:32-p271:32:32-p272:64:64-i64:64-i128:128-f80:128-n8:16:32:64-S128"
target triple = "x86_64-pc-linux-gnu"

%struct.IDAMemRec = type { double, ptr, ptr, i32, double, double, ptr, i32, ptr, ptr, i32, ptr, ptr, i32, i32, double, double, ptr, i32, i32, i32, ptr, ptr, i32, ptr, ptr, ptr, i32, double, i32, i32, double, ptr, ptr, i32, ptr, ptr, i32, i32, i32, double, ptr, ptr, [6 x ptr], [6 x double], [6 x double], [6 x double], [6 x double], [6 x double], ptr, ptr, ptr, ptr, ptr, ptr, ptr, ptr, ptr, ptr, ptr, ptr, ptr, ptr, ptr, [6 x ptr], ptr, ptr, ptr, ptr, [6 x ptr], ptr, ptr, ptr, ptr, ptr, ptr, ptr, ptr, ptr, ptr, ptr, ptr, ptr, ptr, [6 x ptr], ptr, ptr, ptr, ptr, ptr, double, ptr, ptr, i32, i32, i32, i32, i32, i32, i32, double, double, double, i32, double, i32, i32, i32, i32, double, double, double, double, double, double, double, double, double, double, double, double, double, double, i32, i32, i32, i32, i32, i64, double, i32, i64, i64, i64, i64, i64, i64, i64, i64, i64, i64, i64, i64, i64, i64, i64, i64, i64, i64, i64, i64, i64, i64, i64, i64, ptr, ptr, ptr, i32, i32, i32, i32, i32, i32, i32, i32, i32, i32, i32, i32, i32, ptr, ptr, ptr, ptr, ptr, ptr, i32, i32, i32, i32, i32, i32, double, double, double, ptr, i32, ptr, ptr, double, double, double, ptr, ptr, ptr, double, double, i32, i32, i64, ptr, i32, i32, ptr, i32 }
%struct.IDASpilsMemRec = type { i32, i32, double, i32, i32, double, double, double, i64, i64, i64, i64, i64, i64, i64, i64, i64, i64, i64, i64, ptr, ptr, ptr, ptr, ptr, ptr, ptr, i64, ptr, ptr, ptr, ptr, i32, ptr, ptr }
%struct.SpbcgMemRec = type { i32, ptr, ptr, ptr, ptr, ptr, ptr, ptr }

@.str = private unnamed_addr constant [9 x i8] c"IDASPBCG\00", align 1
@.str.10 = private unnamed_addr constant [9 x i8] c"IDaSPBCG\00", align 1
@.str.11 = private unnamed_addr constant [14 x i8] c"IDASpbcgSolve\00", align 1
@.str.12 = private unnamed_addr constant [65 x i8] c"The Jacobian x vector routine failed in an unrecoverable manner.\00", align 1
@.str.13 = private unnamed_addr constant [68 x i8] c"The preconditioner solve routine failed in an unrecoverable manner.\00", align 1

; Function Attrs: nounwind uwtable
define internal i32 @IDASpbcgSolve(ptr noundef %0, ptr noundef %1, ptr noundef %2, ptr noundef %3, ptr noundef %4, ptr noundef %5) #0 {
  %7 = alloca i32, align 4
  %8 = alloca ptr, align 8
  %9 = alloca ptr, align 8
  %10 = alloca ptr, align 8
  %11 = alloca ptr, align 8
  %12 = alloca ptr, align 8
  %13 = alloca ptr, align 8
  %14 = alloca ptr, align 8
  %15 = alloca ptr, align 8
  %16 = alloca i32, align 4
  %17 = alloca i32, align 4
  %18 = alloca i32, align 4
  %19 = alloca i32, align 4
  %20 = alloca double, align 8
  %21 = alloca i32, align 4
  store ptr %0, ptr %8, align 8, !tbaa !9
  store ptr %1, ptr %9, align 8, !tbaa !62
  store ptr %2, ptr %10, align 8, !tbaa !62
  store ptr %3, ptr %11, align 8, !tbaa !62
  store ptr %4, ptr %12, align 8, !tbaa !62
  store ptr %5, ptr %13, align 8, !tbaa !62
  call void @llvm.lifetime.start.p0(i64 8, ptr %14) #5
  call void @llvm.lifetime.start.p0(i64 8, ptr %15) #5
  call void @llvm.lifetime.start.p0(i64 4, ptr %16) #5
  call void @llvm.lifetime.start.p0(i64 4, ptr %17) #5
  call void @llvm.lifetime.start.p0(i64 4, ptr %18) #5
  call void @llvm.lifetime.start.p0(i64 4, ptr %19) #5
  call void @llvm.lifetime.start.p0(i64 8, ptr %20) #5
  %22 = load ptr, ptr %8, align 8, !tbaa !9
  %23 = getelementptr inbounds nuw %struct.IDAMemRec, ptr %22, i32 0, i32 176
  %24 = load ptr, ptr %23, align 8, !tbaa !53
  store ptr %24, ptr %14, align 8, !tbaa !31
  %25 = load ptr, ptr %14, align 8, !tbaa !31
  %26 = getelementptr inbounds nuw %struct.IDASpilsMemRec, ptr %25, i32 0, i32 26
  %27 = load ptr, ptr %26, align 8, !tbaa !52
  store ptr %27, ptr %15, align 8, !tbaa !3
  %28 = load ptr, ptr %14, align 8, !tbaa !31
  %29 = getelementptr inbounds nuw %struct.IDASpilsMemRec, ptr %28, i32 0, i32 2
  %30 = load double, ptr %29, align 8, !tbaa !51
  %31 = load ptr, ptr %14, align 8, !tbaa !31
  %32 = getelementptr inbounds nuw %struct.IDASpilsMemRec, ptr %31, i32 0, i32 5
  %33 = load double, ptr %32, align 8, !tbaa !44
  %34 = fmul double %30, %33
  %35 = load ptr, ptr %8, align 8, !tbaa !9
  %36 = getelementptr inbounds nuw %struct.IDAMemRec, ptr %35, i32 0, i32 119
  %37 = load double, ptr %36, align 8, !tbaa !65
  %38 = fmul double %34, %37
  %39 = load ptr, ptr %14, align 8, !tbaa !31
  %40 = getelementptr inbounds nuw %struct.IDASpilsMemRec, ptr %39, i32 0, i32 7
  store double %38, ptr %40, align 8, !tbaa !66
  %41 = load ptr, ptr %11, align 8, !tbaa !62
  %42 = load ptr, ptr %14, align 8, !tbaa !31
  %43 = getelementptr inbounds nuw %struct.IDASpilsMemRec, ptr %42, i32 0, i32 23
  store ptr %41, ptr %43, align 8, !tbaa !67
  %44 = load ptr, ptr %12, align 8, !tbaa !62
  %45 = load ptr, ptr %14, align 8, !tbaa !31
  %46 = getelementptr inbounds nuw %struct.IDASpilsMemRec, ptr %45, i32 0, i32 24
  store ptr %44, ptr %46, align 8, !tbaa !68
  %47 = load ptr, ptr %13, align 8, !tbaa !62
  %48 = load ptr, ptr %14, align 8, !tbaa !31
  %49 = getelementptr inbounds nuw %struct.IDASpilsMemRec, ptr %48, i32 0, i32 25
  store ptr %47, ptr %49, align 8, !tbaa !69
  %50 = load ptr, ptr %14, align 8, !tbaa !31
  %51 = getelementptr inbounds nuw %struct.IDASpilsMemRec, ptr %50, i32 0, i32 29
  %52 = load ptr, ptr %51, align 8, !tbaa !40
  %53 = icmp eq ptr %52, null
  %54 = select i1 %53, i32 0, i32 1
  store i32 %54, ptr %16, align 4, !tbaa !7
  %55 = load ptr, ptr %14, align 8, !tbaa !31
  %56 = getelementptr inbounds nuw %struct.IDASpilsMemRec, ptr %55, i32 0, i32 22
  %57 = load ptr, ptr %56, align 8, !tbaa !50
  call void @N_VConst(double noundef 0.000000e+00, ptr noundef %57)
  %58 = load ptr, ptr %15, align 8, !tbaa !3
  %59 = load ptr, ptr %8, align 8, !tbaa !9
  %60 = load ptr, ptr %14, align 8, !tbaa !31
  %61 = getelementptr inbounds nuw %struct.IDASpilsMemRec, ptr %60, i32 0, i32 22
  %62 = load ptr, ptr %61, align 8, !tbaa !50
  %63 = load ptr, ptr %9, align 8, !tbaa !62
  %64 = load i32, ptr %16, align 4, !tbaa !7
  %65 = load ptr, ptr %14, align 8, !tbaa !31
  %66 = getelementptr inbounds nuw %struct.IDASpilsMemRec, ptr %65, i32 0, i32 7
  %67 = load double, ptr %66, align 8, !tbaa !66
  %68 = load ptr, ptr %8, align 8, !tbaa !9
  %69 = load ptr, ptr %10, align 8, !tbaa !62
  %70 = load ptr, ptr %10, align 8, !tbaa !62
  %71 = call i32 @SpbcgSolve(ptr noundef %58, ptr noundef %59, ptr noundef %62, ptr noundef %63, i32 noundef %64, double noundef %67, ptr noundef %68, ptr noundef %69, ptr noundef %70, ptr noundef @IDASpilsAtimes, ptr noundef @IDASpilsPSolve, ptr noundef %20, ptr noundef %17, ptr noundef %18)
  store i32 %71, ptr %19, align 4, !tbaa !7
  %72 = load i32, ptr %19, align 4, !tbaa !7
  %73 = sext i32 %72 to i64
  %74 = load ptr, ptr %14, align 8, !tbaa !31
  %75 = getelementptr inbounds nuw %struct.IDASpilsMemRec, ptr %74, i32 0, i32 27
  store i64 %73, ptr %75, align 8, !tbaa !46
  %76 = load i32, ptr %17, align 4, !tbaa !7
  %77 = icmp eq i32 %76, 0
  br i1 %77, label %78, label %83

78:                                               ; preds = %6
  %79 = load ptr, ptr %15, align 8, !tbaa !3
  %80 = getelementptr inbounds nuw %struct.SpbcgMemRec, ptr %79, i32 0, i32 2
  %81 = load ptr, ptr %80, align 8, !tbaa !70
  %82 = load ptr, ptr %9, align 8, !tbaa !62
  call void @N_VScale(double noundef 1.000000e+00, ptr noundef %81, ptr noundef %82)
  br label %88

83:                                               ; preds = %6
  %84 = load ptr, ptr %14, align 8, !tbaa !31
  %85 = getelementptr inbounds nuw %struct.IDASpilsMemRec, ptr %84, i32 0, i32 22
  %86 = load ptr, ptr %85, align 8, !tbaa !50
  %87 = load ptr, ptr %9, align 8, !tbaa !62
  call void @N_VScale(double noundef 1.000000e+00, ptr noundef %86, ptr noundef %87)
  br label %88

88:                                               ; preds = %83, %78
  %89 = load i32, ptr %17, align 4, !tbaa !7
  %90 = sext i32 %89 to i64
  %91 = load ptr, ptr %14, align 8, !tbaa !31
  %92 = getelementptr inbounds nuw %struct.IDASpilsMemRec, ptr %91, i32 0, i32 9
  %93 = load i64, ptr %92, align 8, !tbaa !56
  %94 = add nsw i64 %93, %90
  store i64 %94, ptr %92, align 8, !tbaa !56
  %95 = load i32, ptr %18, align 4, !tbaa !7
  %96 = sext i32 %95 to i64
  %97 = load ptr, ptr %14, align 8, !tbaa !31
  %98 = getelementptr inbounds nuw %struct.IDASpilsMemRec, ptr %97, i32 0, i32 10
  %99 = load i64, ptr %98, align 8, !tbaa !55
  %100 = add nsw i64 %99, %96
  store i64 %100, ptr %98, align 8, !tbaa !55
  %101 = load i32, ptr %19, align 4, !tbaa !7
  %102 = icmp ne i32 %101, 0
  br i1 %102, label %103, label %108

103:                                              ; preds = %88
  %104 = load ptr, ptr %14, align 8, !tbaa !31
  %105 = getelementptr inbounds nuw %struct.IDASpilsMemRec, ptr %104, i32 0, i32 11
  %106 = load i64, ptr %105, align 8, !tbaa !54
  %107 = add nsw i64 %106, 1
  store i64 %107, ptr %105, align 8, !tbaa !54
  br label %108

108:                                              ; preds = %103, %88
  %109 = load i32, ptr %19, align 4, !tbaa !7
  %110 = sext i32 %109 to i64
  %111 = load ptr, ptr %14, align 8, !tbaa !31
  %112 = getelementptr inbounds nuw %struct.IDASpilsMemRec, ptr %111, i32 0, i32 27
  store i64 %110, ptr %112, align 8, !tbaa !46
  %113 = load i32, ptr %19, align 4, !tbaa !7
  switch i32 %113, label %124 [
    i32 0, label %114
    i32 1, label %115
    i32 2, label %116
    i32 3, label %117
    i32 4, label %118
    i32 -1, label %119
    i32 -2, label %120
    i32 -3, label %122
  ]

114:                                              ; preds = %108
  store i32 0, ptr %7, align 4
  store i32 1, ptr %21, align 4
  br label %125

115:                                              ; preds = %108
  store i32 1, ptr %7, align 4
  store i32 1, ptr %21, align 4
  br label %125

116:                                              ; preds = %108
  store i32 1, ptr %7, align 4
  store i32 1, ptr %21, align 4
  br label %125

117:                                              ; preds = %108
  store i32 1, ptr %7, align 4
  store i32 1, ptr %21, align 4
  br label %125

118:                                              ; preds = %108
  store i32 1, ptr %7, align 4
  store i32 1, ptr %21, align 4
  br label %125

119:                                              ; preds = %108
  store i32 -1, ptr %7, align 4
  store i32 1, ptr %21, align 4
  br label %125

120:                                              ; preds = %108
  %121 = load ptr, ptr %8, align 8, !tbaa !9
  call void (ptr, i32, ptr, ptr, ptr, ...) @IDAProcessError(ptr noundef %121, i32 noundef -2, ptr noundef @.str.10, ptr noundef @.str.11, ptr noundef @.str.12)
  store i32 -1, ptr %7, align 4
  store i32 1, ptr %21, align 4
  br label %125

122:                                              ; preds = %108
  %123 = load ptr, ptr %8, align 8, !tbaa !9
  call void (ptr, i32, ptr, ptr, ptr, ...) @IDAProcessError(ptr noundef %123, i32 noundef -3, ptr noundef @.str, ptr noundef @.str.11, ptr noundef @.str.13)
  store i32 -1, ptr %7, align 4
  store i32 1, ptr %21, align 4
  br label %125

124:                                              ; preds = %108
  store i32 0, ptr %7, align 4
  store i32 1, ptr %21, align 4
  br label %125

125:                                              ; preds = %124, %122, %120, %119, %118, %117, %116, %115, %114
  call void @llvm.lifetime.end.p0(i64 8, ptr %20) #5
  call void @llvm.lifetime.end.p0(i64 4, ptr %19) #5
  call void @llvm.lifetime.end.p0(i64 4, ptr %18) #5
  call void @llvm.lifetime.end.p0(i64 4, ptr %17) #5
  call void @llvm.lifetime.end.p0(i64 4, ptr %16) #5
  call void @llvm.lifetime.end.p0(i64 8, ptr %15) #5
  call void @llvm.lifetime.end.p0(i64 8, ptr %14) #5
  %126 = load i32, ptr %7, align 4
  ret i32 %126
}