; Function Attrs: nounwind uwtable
define internal range(i32 -1, 2) i32 @IDASpbcgSolve(ptr noundef %0, ptr noundef %1, ptr noundef %2, ptr noundef %3, ptr noundef %4, ptr noundef %5) #0 {
  %7 = alloca i32, align 4
  %8 = alloca i32, align 4
  %9 = alloca double, align 8
  call void @llvm.lifetime.start.p0(i64 4, ptr nonnull %7) #8
  call void @llvm.lifetime.start.p0(i64 4, ptr nonnull %8) #8
  call void @llvm.lifetime.start.p0(i64 8, ptr nonnull %9) #8
  %10 = getelementptr inbounds nuw i8, ptr %0, i64 1632
  %11 = load ptr, ptr %10, align 8, !tbaa !42
  %12 = getelementptr inbounds nuw i8, ptr %11, i64 192
  %13 = load ptr, ptr %12, align 8, !tbaa !41
  %14 = getelementptr inbounds nuw i8, ptr %11, i64 8
  %15 = load double, ptr %14, align 8, !tbaa !40
  %16 = getelementptr inbounds nuw i8, ptr %11, i64 24
  %17 = load double, ptr %16, align 8, !tbaa !33
  %18 = fmul double %15, %17
  %19 = getelementptr inbounds nuw i8, ptr %0, i64 1240
  %20 = load double, ptr %19, align 8, !tbaa !52
  %21 = fmul double %18, %20
  %22 = getelementptr inbounds nuw i8, ptr %11, i64 40
  store double %21, ptr %22, align 8, !tbaa !53
  %23 = getelementptr inbounds nuw i8, ptr %11, i64 168
  store ptr %3, ptr %23, align 8, !tbaa !54
  %24 = getelementptr inbounds nuw i8, ptr %11, i64 176
  store ptr %4, ptr %24, align 8, !tbaa !55
  %25 = getelementptr inbounds nuw i8, ptr %11, i64 184
  store ptr %5, ptr %25, align 8, !tbaa !56
  %26 = getelementptr inbounds nuw i8, ptr %11, i64 216
  %27 = load ptr, ptr %26, align 8, !tbaa !43
  %28 = icmp ne ptr %27, null
  %29 = zext i1 %28 to i32
  %30 = getelementptr inbounds nuw i8, ptr %11, i64 160
  %31 = load ptr, ptr %30, align 8, !tbaa !39
  tail call void @N_VConst(double noundef 0.000000e+00, ptr noundef %31) #8
  %32 = load ptr, ptr %30, align 8, !tbaa !39
  %33 = load double, ptr %22, align 8, !tbaa !53
  %34 = call i32 @SpbcgSolve(ptr noundef %13, ptr noundef %0, ptr noundef %32, ptr noundef %1, i32 noundef %29, double noundef %33, ptr noundef %0, ptr noundef %2, ptr noundef %2, ptr noundef nonnull @IDASpilsAtimes, ptr noundef nonnull @IDASpilsPSolve, ptr noundef nonnull %9, ptr noundef nonnull %7, ptr noundef nonnull %8) #8
  %35 = sext i32 %34 to i64
  %36 = getelementptr inbounds nuw i8, ptr %11, i64 200
  store i64 %35, ptr %36, align 8, !tbaa !35
  %37 = load i32, ptr %7, align 4, !tbaa !57
  %38 = icmp eq i32 %37, 0
  %39 = getelementptr inbounds nuw i8, ptr %13, i64 16
  %.sink.in = select i1 %38, ptr %39, ptr %30
  %.sink = load ptr, ptr %.sink.in, align 8, !tbaa !58
  call void @N_VScale(double noundef 1.000000e+00, ptr noundef %.sink, ptr noundef %1) #8
  %40 = load i32, ptr %7, align 4, !tbaa !57
  %41 = sext i32 %40 to i64
  %42 = getelementptr inbounds nuw i8, ptr %11, i64 56
  %43 = load i64, ptr %42, align 8, !tbaa !59
  %44 = add nsw i64 %43, %41
  store i64 %44, ptr %42, align 8, !tbaa !59
  %45 = load i32, ptr %8, align 4, !tbaa !57
  %46 = sext i32 %45 to i64
  %47 = getelementptr inbounds nuw i8, ptr %11, i64 64
  %48 = load i64, ptr %47, align 8, !tbaa !60
  %49 = add nsw i64 %48, %46
  store i64 %49, ptr %47, align 8, !tbaa !60
  %.not = icmp eq i32 %34, 0
  br i1 %.not, label %.thread, label %50

.thread:                                          ; preds = %6
  store i64 %35, ptr %36, align 8, !tbaa !35
  br label %57

50:                                               ; preds = %6
  %51 = getelementptr inbounds nuw i8, ptr %11, i64 72
  %52 = load i64, ptr %51, align 8, !tbaa !61
  %53 = add nsw i64 %52, 1
  store i64 %53, ptr %51, align 8, !tbaa !61
  store i64 %35, ptr %36, align 8, !tbaa !35
  switch i32 %34, label %57 [
    i32 -3, label %56
    i32 1, label %58
    i32 2, label %58
    i32 3, label %58
    i32 4, label %58
    i32 -1, label %54
    i32 -2, label %55
  ]

54:                                               ; preds = %50
  br label %58

55:                                               ; preds = %50
  call void (ptr, i32, ptr, ptr, ptr, ...) @IDAProcessError(ptr noundef nonnull %0, i32 noundef -2, ptr noundef nonnull @.str.10, ptr noundef nonnull @.str.11, ptr noundef nonnull @.str.12) #8
  br label %58

56:                                               ; preds = %50
  call void (ptr, i32, ptr, ptr, ptr, ...) @IDAProcessError(ptr noundef nonnull %0, i32 noundef -3, ptr noundef nonnull @.str, ptr noundef nonnull @.str.11, ptr noundef nonnull @.str.13) #8
  br label %58

57:                                               ; preds = %.thread, %50
  br label %58

58:                                               ; preds = %50, %50, %50, %50, %57, %56, %55, %54
  %.0 = phi i32 [ 0, %57 ], [ -1, %56 ], [ -1, %55 ], [ -1, %54 ], [ 1, %50 ], [ 1, %50 ], [ 1, %50 ], [ 1, %50 ]
  call void @llvm.lifetime.end.p0(i64 8, ptr nonnull %9) #8
  call void @llvm.lifetime.end.p0(i64 4, ptr nonnull %8) #8
  call void @llvm.lifetime.end.p0(i64 4, ptr nonnull %7) #8
  ret i32 %.0
}